target datalayout = "e-m:e-p270:32:32-p271:32:32-p272:64:64-i64:64-i128:128-f80:128-n8:16:32:64-S128"
target triple = "x86_64-pc-linux-gnu"

%struct.evp_cipher_info_st = type { ptr, [16 x i8] }
%struct.X509_info_st = type { ptr, ptr, ptr, %struct.evp_cipher_info_st, i32, ptr }
%struct.private_key_st = type { i32, ptr, ptr, ptr, i32, ptr, i32, %struct.evp_cipher_info_st }
%struct.evp_cipher_ctx_st = type { ptr, ptr, ptr, i32, i32, i32, [16 x i8], [16 x i8], [32 x i8], i32, i32, i32, i32, [32 x i8] }
%struct.evp_pkey_st = type { i32, i32, %union.anon, ptr }
%union.anon = type { ptr }

@.str = private unnamed_addr constant [125 x i8] c"generated/home/dtcxzyw/WorkSpace/Projects/compilers/llvm-opt-benchmark/bench/libquic/libquic/boringssl/crypto/pem/pem_info.c\00", align 1
@.str.5 = private unnamed_addr constant [16 x i8] c"RSA PRIVATE KEY\00", align 1

; Function Attrs: nounwind uwtable
define hidden i32 @PEM_X509_INFO_write_bio(ptr noundef %0, ptr noundef %1, ptr noundef %2, ptr noundef %3, i32 noundef %4, ptr noundef %5, ptr noundef %6) #0 {
  %8 = alloca ptr, align 8
  %9 = alloca ptr, align 8
  %10 = alloca ptr, align 8
  %11 = alloca ptr, align 8
  %12 = alloca i32, align 4
  %13 = alloca ptr, align 8
  %14 = alloca ptr, align 8
  %15 = alloca %struct.evp_cipher_ctx_st, align 8
  %16 = alloca i32, align 4
  %17 = alloca i32, align 4
  %18 = alloca ptr, align 8
  %19 = alloca ptr, align 8
  %20 = alloca [1024 x i8], align 16
  %21 = alloca ptr, align 8
  %22 = alloca i32, align 4
  store ptr %0, ptr %8, align 8, !tbaa !14
  store ptr %1, ptr %9, align 8, !tbaa !16
  store ptr %2, ptr %10, align 8, !tbaa !37
  store ptr %3, ptr %11, align 8, !tbaa !18
  store i32 %4, ptr %12, align 4, !tbaa !22
  store ptr %5, ptr %13, align 8, !tbaa !13
  store ptr %6, ptr %14, align 8, !tbaa !13
  call void @llvm.lifetime.start.p0(i64 152, ptr %15) #5
  call void @llvm.lifetime.start.p0(i64 4, ptr %16) #5
  call void @llvm.lifetime.start.p0(i64 4, ptr %17) #5
  store i32 0, ptr %17, align 4, !tbaa !22
  call void @llvm.lifetime.start.p0(i64 8, ptr %18) #5
  store ptr null, ptr %18, align 8, !tbaa !18
  call void @llvm.lifetime.start.p0(i64 8, ptr %19) #5
  store ptr null, ptr %19, align 8, !tbaa !18
  call void @llvm.lifetime.start.p0(i64 1024, ptr %20) #5
  call void @llvm.lifetime.start.p0(i64 8, ptr %21) #5
  store ptr null, ptr %21, align 8, !tbaa !18
  call void @llvm.lifetime.start.p0(i64 4, ptr %22) #5
  store i32 0, ptr %22, align 4, !tbaa !22
  %23 = load ptr, ptr %10, align 8, !tbaa !37
  %24 = icmp ne ptr %23, null
  br i1 %24, label %25, label %35

25:                                               ; preds = %7
  %26 = load ptr, ptr %10, align 8, !tbaa !37
  %27 = call i32 @EVP_CIPHER_iv_length(ptr noundef %26)
  store i32 %27, ptr %22, align 4, !tbaa !22
  %28 = load ptr, ptr %10, align 8, !tbaa !37
  %29 = call i32 @EVP_CIPHER_nid(ptr noundef %28)
  %30 = call ptr @OBJ_nid2sn(i32 noundef %29)
  store ptr %30, ptr %19, align 8, !tbaa !18
  %31 = load ptr, ptr %19, align 8, !tbaa !18
  %32 = icmp eq ptr %31, null
  br i1 %32, label %33, label %34

33:                                               ; preds = %25
  call void @ERR_put_error(i32 noundef 9, i32 noundef 0, i32 noundef 113, ptr noundef @.str, i32 noundef 312)
  br label %124

34:                                               ; preds = %25
  br label %35

35:                                               ; preds = %34, %7
  %36 = load ptr, ptr %9, align 8, !tbaa !16
  %37 = getelementptr inbounds nuw %struct.X509_info_st, ptr %36, i32 0, i32 2
  %38 = load ptr, ptr %37, align 8, !tbaa !32
  %39 = icmp ne ptr %38, null
  br i1 %39, label %40, label %110

40:                                               ; preds = %35
  %41 = load ptr, ptr %9, align 8, !tbaa !16
  %42 = getelementptr inbounds nuw %struct.X509_info_st, ptr %41, i32 0, i32 5
  %43 = load ptr, ptr %42, align 8, !tbaa !33
  %44 = icmp ne ptr %43, null
  br i1 %44, label %45, label %91

45:                                               ; preds = %40
  %46 = load ptr, ptr %9, align 8, !tbaa !16
  %47 = getelementptr inbounds nuw %struct.X509_info_st, ptr %46, i32 0, i32 4
  %48 = load i32, ptr %47, align 8, !tbaa !34
  %49 = icmp sgt i32 %48, 0
  br i1 %49, label %50, label %91

50:                                               ; preds = %45
  %51 = load ptr, ptr %10, align 8, !tbaa !37
  %52 = icmp eq ptr %51, null
  br i1 %52, label %53, label %54

53:                                               ; preds = %50
  call void @ERR_put_error(i32 noundef 9, i32 noundef 0, i32 noundef 105, ptr noundef @.str, i32 noundef 325)
  br label %124

54:                                               ; preds = %50
  %55 = load ptr, ptr %9, align 8, !tbaa !16
  %56 = getelementptr inbounds nuw %struct.X509_info_st, ptr %55, i32 0, i32 3
  %57 = getelementptr inbounds nuw %struct.evp_cipher_info_st, ptr %56, i32 0, i32 1
  %58 = getelementptr inbounds [16 x i8], ptr %57, i64 0, i64 0
  store ptr %58, ptr %21, align 8, !tbaa !18
  %59 = load ptr, ptr %9, align 8, !tbaa !16
  %60 = getelementptr inbounds nuw %struct.X509_info_st, ptr %59, i32 0, i32 5
  %61 = load ptr, ptr %60, align 8, !tbaa !33
  store ptr %61, ptr %18, align 8, !tbaa !18
  %62 = load ptr, ptr %9, align 8, !tbaa !16
  %63 = getelementptr inbounds nuw %struct.X509_info_st, ptr %62, i32 0, i32 4
  %64 = load i32, ptr %63, align 8, !tbaa !34
  store i32 %64, ptr %16, align 4, !tbaa !22
  %65 = load ptr, ptr %9, align 8, !tbaa !16
  %66 = getelementptr inbounds nuw %struct.X509_info_st, ptr %65, i32 0, i32 3
  %67 = getelementptr inbounds nuw %struct.evp_cipher_info_st, ptr %66, i32 0, i32 0
  %68 = load ptr, ptr %67, align 8, !tbaa !38
  %69 = call i32 @EVP_CIPHER_nid(ptr noundef %68)
  %70 = call ptr @OBJ_nid2sn(i32 noundef %69)
  store ptr %70, ptr %19, align 8, !tbaa !18
  %71 = load ptr, ptr %19, align 8, !tbaa !18
  %72 = icmp eq ptr %71, null
  br i1 %72, label %73, label %74

73:                                               ; preds = %54
  call void @ERR_put_error(i32 noundef 9, i32 noundef 0, i32 noundef 113, ptr noundef @.str, i32 noundef 341)
  br label %124

74:                                               ; preds = %54
  %75 = getelementptr inbounds [1024 x i8], ptr %20, i64 0, i64 0
  store i8 0, ptr %75, align 16, !tbaa !39
  %76 = getelementptr inbounds [1024 x i8], ptr %20, i64 0, i64 0
  call void @PEM_proc_type(ptr noundef %76, i32 noundef 10)
  %77 = getelementptr inbounds [1024 x i8], ptr %20, i64 0, i64 0
  %78 = load ptr, ptr %19, align 8, !tbaa !18
  %79 = load i32, ptr %22, align 4, !tbaa !22
  %80 = load ptr, ptr %21, align 8, !tbaa !18
  call void @PEM_dek_info(ptr noundef %77, ptr noundef %78, i32 noundef %79, ptr noundef %80)
  %81 = load ptr, ptr %8, align 8, !tbaa !14
  %82 = getelementptr inbounds [1024 x i8], ptr %20, i64 0, i64 0
  %83 = load ptr, ptr %18, align 8, !tbaa !18
  %84 = load i32, ptr %16, align 4, !tbaa !22
  %85 = sext i32 %84 to i64
  %86 = call i32 @PEM_write_bio(ptr noundef %81, ptr noundef @.str.5, ptr noundef %82, ptr noundef %83, i64 noundef %85)
  store i32 %86, ptr %16, align 4, !tbaa !22
  %87 = load i32, ptr %16, align 4, !tbaa !22
  %88 = icmp sle i32 %87, 0
  br i1 %88, label %89, label %90

89:                                               ; preds = %74
  br label %124

90:                                               ; preds = %74
  br label %109

91:                                               ; preds = %45, %40
  %92 = load ptr, ptr %8, align 8, !tbaa !14
  %93 = load ptr, ptr %9, align 8, !tbaa !16
  %94 = getelementptr inbounds nuw %struct.X509_info_st, ptr %93, i32 0, i32 2
  %95 = load ptr, ptr %94, align 8, !tbaa !32
  %96 = getelementptr inbounds nuw %struct.private_key_st, ptr %95, i32 0, i32 3
  %97 = load ptr, ptr %96, align 8, !tbaa !40
  %98 = getelementptr inbounds nuw %struct.evp_pkey_st, ptr %97, i32 0, i32 2
  %99 = load ptr, ptr %98, align 8, !tbaa !39
  %100 = load ptr, ptr %10, align 8, !tbaa !37
  %101 = load ptr, ptr %11, align 8, !tbaa !18
  %102 = load i32, ptr %12, align 4, !tbaa !22
  %103 = load ptr, ptr %13, align 8, !tbaa !13
  %104 = load ptr, ptr %14, align 8, !tbaa !13
  %105 = call i32 @PEM_write_bio_RSAPrivateKey(ptr noundef %92, ptr noundef %99, ptr noundef %100, ptr noundef %101, i32 noundef %102, ptr noundef %103, ptr noundef %104)
  %106 = icmp sle i32 %105, 0
  br i1 %106, label %107, label %108

107:                                              ; preds = %91
  br label %124

108:                                              ; preds = %91
  br label %109

109:                                              ; preds = %108, %90
  br label %110

110:                                              ; preds = %109, %35
  %111 = load ptr, ptr %9, align 8, !tbaa !16
  %112 = getelementptr inbounds nuw %struct.X509_info_st, ptr %111, i32 0, i32 0
  %113 = load ptr, ptr %112, align 8, !tbaa !24
  %114 = icmp ne ptr %113, null
  br i1 %114, label %115, label %123

115:                                              ; preds = %110
  %116 = load ptr, ptr %8, align 8, !tbaa !14
  %117 = load ptr, ptr %9, align 8, !tbaa !16
  %118 = getelementptr inbounds nuw %struct.X509_info_st, ptr %117, i32 0, i32 0
  %119 = load ptr, ptr %118, align 8, !tbaa !24
  %120 = call i32 @PEM_write_bio_X509(ptr noundef %116, ptr noundef %119)
  %121 = icmp sle i32 %120, 0
  br i1 %121, label %122, label %123

122:                                              ; preds = %115
  br label %124

123:                                              ; preds = %115, %110
  store i32 1, ptr %17, align 4, !tbaa !22
  br label %124

124:                                              ; preds = %123, %122, %107, %89, %73, %53, %33
  call void @OPENSSL_cleanse(ptr noundef %15, i64 noundef 152)
  %125 = getelementptr inbounds [1024 x i8], ptr %20, i64 0, i64 0
  call void @OPENSSL_cleanse(ptr noundef %125, i64 noundef 1024)
  %126 = load i32, ptr %17, align 4, !tbaa !22
  call void @llvm.lifetime.end.p0(i64 4, ptr %22) #5
  call void @llvm.lifetime.end.p0(i64 8, ptr %21) #5
  call void @llvm.lifetime.end.p0(i64 1024, ptr %20) #5
  call void @llvm.lifetime.end.p0(i64 8, ptr %19) #5
  call void @llvm.lifetime.end.p0(i64 8, ptr %18) #5
  call void @llvm.lifetime.end.p0(i64 4, ptr %17) #5
  call void @llvm.lifetime.end.p0(i64 4, ptr %16) #5
  call void @llvm.lifetime.end.p0(i64 152, ptr %15) #5
  ret i32 %126
}