; Function Attrs: nounwind uwtable
define hidden range(i32 0, 2) i32 @PEM_X509_INFO_write_bio(ptr noundef %0, ptr noundef %1, ptr noundef %2, ptr noundef %3, i32 noundef %4, ptr noundef %5, ptr noundef %6) local_unnamed_addr #0 {
  %8 = alloca %struct.evp_cipher_ctx_st, align 8
  %9 = alloca [1024 x i8], align 16
  call void @llvm.lifetime.start.p0(i64 152, ptr nonnull %8) #5
  call void @llvm.lifetime.start.p0(i64 1024, ptr nonnull %9) #5
  %.not = icmp eq ptr %2, null
  br i1 %.not, label %16, label %10

10:                                               ; preds = %7
  %11 = tail call i32 @EVP_CIPHER_iv_length(ptr noundef nonnull %2) #5
  %12 = tail call i32 @EVP_CIPHER_nid(ptr noundef nonnull %2) #5
  %13 = tail call ptr @OBJ_nid2sn(i32 noundef %12) #5
  %14 = icmp eq ptr %13, null
  br i1 %14, label %15, label %16

15:                                               ; preds = %10
  tail call void @ERR_put_error(i32 noundef 9, i32 noundef 0, i32 noundef 113, ptr noundef nonnull @.str, i32 noundef 312) #5
  br label %53

16:                                               ; preds = %10, %7
  %.0 = phi i32 [ %11, %10 ], [ 0, %7 ]
  %17 = getelementptr inbounds nuw i8, ptr %1, i64 16
  %18 = load ptr, ptr %17, align 8, !tbaa !20
  %.not36 = icmp eq ptr %18, null
  br i1 %.not36, label %47, label %19

19:                                               ; preds = %16
  %20 = getelementptr inbounds nuw i8, ptr %1, i64 56
  %21 = load ptr, ptr %20, align 8, !tbaa !21
  %.not37 = icmp eq ptr %21, null
  br i1 %.not37, label %40, label %22

22:                                               ; preds = %19
  %23 = getelementptr inbounds nuw i8, ptr %1, i64 48
  %24 = load i32, ptr %23, align 8, !tbaa !22
  %25 = icmp sgt i32 %24, 0
  br i1 %25, label %26, label %40

26:                                               ; preds = %22
  br i1 %.not, label %27, label %28

27:                                               ; preds = %26
  tail call void @ERR_put_error(i32 noundef 9, i32 noundef 0, i32 noundef 105, ptr noundef nonnull @.str, i32 noundef 325) #5
  br label %53

28:                                               ; preds = %26
  %29 = getelementptr inbounds nuw i8, ptr %1, i64 24
  %30 = load ptr, ptr %29, align 8, !tbaa !27
  %31 = tail call i32 @EVP_CIPHER_nid(ptr noundef %30) #5
  %32 = tail call ptr @OBJ_nid2sn(i32 noundef %31) #5
  %33 = icmp eq ptr %32, null
  br i1 %33, label %34, label %35

34:                                               ; preds = %28
  tail call void @ERR_put_error(i32 noundef 9, i32 noundef 0, i32 noundef 113, ptr noundef nonnull @.str, i32 noundef 341) #5
  br label %53

35:                                               ; preds = %28
  %36 = getelementptr inbounds nuw i8, ptr %1, i64 32
  store i8 0, ptr %9, align 16, !tbaa !28
  call void @PEM_proc_type(ptr noundef nonnull %9, i32 noundef 10) #5
  call void @PEM_dek_info(ptr noundef nonnull %9, ptr noundef nonnull %32, i32 noundef %.0, ptr noundef nonnull %36) #5
  %37 = zext nneg i32 %24 to i64
  %38 = call i32 @PEM_write_bio(ptr noundef %0, ptr noundef nonnull @.str.5, ptr noundef nonnull %9, ptr noundef nonnull %21, i64 noundef %37) #5
  %39 = icmp slt i32 %38, 1
  br i1 %39, label %53, label %47

40:                                               ; preds = %22, %19
  %41 = getelementptr inbounds nuw i8, ptr %18, i64 24
  %42 = load ptr, ptr %41, align 8, !tbaa !29
  %43 = getelementptr inbounds nuw i8, ptr %42, i64 8
  %44 = load ptr, ptr %43, align 8, !tbaa !28
  %45 = tail call i32 @PEM_write_bio_RSAPrivateKey(ptr noundef %0, ptr noundef %44, ptr noundef %2, ptr noundef %3, i32 noundef %4, ptr noundef %5, ptr noundef %6) #5
  %46 = icmp slt i32 %45, 1
  br i1 %46, label %53, label %47

47:                                               ; preds = %35, %40, %16
  %48 = load ptr, ptr %1, align 8, !tbaa !11
  %.not38 = icmp eq ptr %48, null
  br i1 %.not38, label %52, label %49

49:                                               ; preds = %47
  %50 = call i32 @PEM_write_bio_X509(ptr noundef %0, ptr noundef nonnull %48) #5
  %51 = icmp slt i32 %50, 1
  br i1 %51, label %53, label %52

52:                                               ; preds = %49, %47
  br label %53

53:                                               ; preds = %49, %40, %35, %52, %34, %27, %15
  %.030 = phi i32 [ 0, %15 ], [ 0, %27 ], [ 0, %34 ], [ 0, %35 ], [ 0, %49 ], [ 1, %52 ], [ 0, %40 ]
  call void @OPENSSL_cleanse(ptr noundef nonnull %8, i64 noundef 152) #5
  call void @OPENSSL_cleanse(ptr noundef nonnull %9, i64 noundef 1024) #5
  call void @llvm.lifetime.end.p0(i64 1024, ptr nonnull %9) #5
  call void @llvm.lifetime.end.p0(i64 152, ptr nonnull %8) #5
  ret i32 %.030
}